; Function Attrs: nounwind uwtable
define i32 @Fra_ClassesRefine(ptr noundef captures(none) %0) local_unnamed_addr #6 {
  %2 = getelementptr inbounds nuw i8, ptr %0, i64 32
  %3 = load ptr, ptr %2, align 8, !tbaa !30
  %4 = getelementptr inbounds nuw i8, ptr %3, i64 4
  store i32 0, ptr %4, align 4, !tbaa !23
  %5 = getelementptr inbounds nuw i8, ptr %0, i64 16
  %6 = load ptr, ptr %5, align 8, !tbaa !28
  %7 = getelementptr i8, ptr %6, i64 4
  %.val19 = load i32, ptr %7, align 4, !tbaa !23
  %8 = icmp sgt i32 %.val19, 0
  br i1 %8, label %.lr.ph, label %.critedge

.lr.ph:                                           ; preds = %1, %Vec_PtrPush.exit
  %indvars.iv = phi i64 [ %indvars.iv.next, %Vec_PtrPush.exit ], [ 0, %1 ]
  %9 = phi ptr [ %48, %Vec_PtrPush.exit ], [ %6, %1 ]
  %.021 = phi i32 [ %47, %Vec_PtrPush.exit ], [ 0, %1 ]
  %10 = getelementptr i8, ptr %9, i64 8
  %.val17 = load ptr, ptr %10, align 8, !tbaa !27
  %11 = getelementptr inbounds nuw ptr, ptr %.val17, i64 %indvars.iv
  %12 = load ptr, ptr %11, align 8, !tbaa !41
  %13 = load ptr, ptr %2, align 8, !tbaa !30
  %14 = getelementptr inbounds nuw i8, ptr %13, i64 4
  %15 = load i32, ptr %14, align 4, !tbaa !23
  %16 = load i32, ptr %13, align 8, !tbaa !26
  %17 = icmp eq i32 %15, %16
  br i1 %17, label %18, label %.Vec_PtrGrow.exit11_crit_edge.i

.Vec_PtrGrow.exit11_crit_edge.i:                  ; preds = %.lr.ph
  %.phi.trans.insert.i = getelementptr inbounds nuw i8, ptr %13, i64 8
  %.pre.i = load ptr, ptr %.phi.trans.insert.i, align 8, !tbaa !27
  br label %Vec_PtrPush.exit

18:                                               ; preds = %.lr.ph
  %19 = icmp slt i32 %15, 16
  br i1 %19, label %20, label %28

20:                                               ; preds = %18
  %21 = getelementptr inbounds nuw i8, ptr %13, i64 8
  %22 = load ptr, ptr %21, align 8, !tbaa !27
  %.not9.i.i = icmp eq ptr %22, null
  br i1 %.not9.i.i, label %25, label %23

23:                                               ; preds = %20
  %24 = tail call dereferenceable_or_null(128) ptr @realloc(ptr noundef nonnull %22, i64 noundef 128) #19
  br label %Vec_PtrGrow.exit.i

25:                                               ; preds = %20
  %26 = tail call noalias dereferenceable_or_null(128) ptr @malloc(i64 noundef 128) #17
  br label %Vec_PtrGrow.exit.i

Vec_PtrGrow.exit.i:                               ; preds = %25, %23
  %27 = phi ptr [ %24, %23 ], [ %26, %25 ]
  store ptr %27, ptr %21, align 8, !tbaa !27
  store i32 16, ptr %13, align 8, !tbaa !26
  br label %Vec_PtrPush.exit

28:                                               ; preds = %18
  %29 = shl nuw nsw i32 %15, 1
  %30 = getelementptr inbounds nuw i8, ptr %13, i64 8
  %31 = load ptr, ptr %30, align 8, !tbaa !27
  %.not9.i10.i = icmp eq ptr %31, null
  %32 = zext nneg i32 %29 to i64
  %33 = shl nuw nsw i64 %32, 3
  br i1 %.not9.i10.i, label %36, label %34

34:                                               ; preds = %28
  %35 = tail call ptr @realloc(ptr noundef nonnull %31, i64 noundef %33) #19
  br label %38

36:                                               ; preds = %28
  %37 = tail call noalias ptr @malloc(i64 noundef %33) #17
  br label %38

38:                                               ; preds = %36, %34
  %39 = phi ptr [ %35, %34 ], [ %37, %36 ]
  store ptr %39, ptr %30, align 8, !tbaa !27
  store i32 %29, ptr %13, align 8, !tbaa !26
  br label %Vec_PtrPush.exit

Vec_PtrPush.exit:                                 ; preds = %.Vec_PtrGrow.exit11_crit_edge.i, %Vec_PtrGrow.exit.i, %38
  %40 = phi ptr [ %.pre.i, %.Vec_PtrGrow.exit11_crit_edge.i ], [ %39, %38 ], [ %27, %Vec_PtrGrow.exit.i ]
  %41 = load i32, ptr %14, align 4, !tbaa !23
  %42 = add nsw i32 %41, 1
  store i32 %42, ptr %14, align 4, !tbaa !23
  %43 = sext i32 %41 to i64
  %44 = getelementptr inbounds ptr, ptr %40, i64 %43
  store ptr %12, ptr %44, align 8, !tbaa !41
  %45 = load ptr, ptr %2, align 8, !tbaa !30
  %46 = tail call i32 @Fra_RefineClassLastIter(ptr noundef nonnull %0, ptr noundef %45)
  %47 = add nsw i32 %46, %.021
  %indvars.iv.next = add nuw nsw i64 %indvars.iv, 1
  %48 = load ptr, ptr %5, align 8, !tbaa !28
  %49 = getelementptr i8, ptr %48, i64 4
  %.val = load i32, ptr %49, align 4, !tbaa !23
  %50 = sext i32 %.val to i64
  %51 = icmp slt i64 %indvars.iv.next, %50
  br i1 %51, label %.lr.ph, label %.critedge.loopexit, !llvm.loop !73

.critedge.loopexit:                               ; preds = %Vec_PtrPush.exit
  %.pre = load ptr, ptr %2, align 8, !tbaa !30
  br label %.critedge

.critedge:                                        ; preds = %.critedge.loopexit, %1
  %52 = phi ptr [ %3, %1 ], [ %.pre, %.critedge.loopexit ]
  %.0.lcssa = phi i32 [ 0, %1 ], [ %47, %.critedge.loopexit ]
  %.lcssa = phi ptr [ %6, %1 ], [ %48, %.critedge.loopexit ]
  store ptr %.lcssa, ptr %2, align 8, !tbaa !30
  store ptr %52, ptr %5, align 8, !tbaa !28
  ret i32 %.0.lcssa
}